(lp0
I9
aI9
aI5
aI7
aI5
aI7
aI8
aI8
aI6
aI7
aI6
aI5
aI8
aI9
aI8
aI9
aI8
aI6
aI8
aI7
aI5
aI6
aI9
aI10
aI8
aI6
aI10
aI7
aI8
aI9
aI5
aI6
aI7
aI5
aI7
aI8
aI11
aI10
aI8
aI9
aI5
aI5
aI6
aI6
aI5
aI8
aI7
aI7
aI5
aI6
aI6
aI5
aI9
aI6
aI7
aI3
aI8
aI8
aI10
aI11
aI9
aI9
aI5
aI6
aI7
aI5
aI11
aI6
aI11
aI5
aI7
aI6
aI3
aI7
aI13
aI6
aI6
aI6
aI7
aI10
aI10
aI10
aI7
aI5
aI6
aI10
aI9
aI5
aI5
aI5
aI7
aI3
aI6
aI7
aI6
aI7
aI7
aI7
aI7
aI9
aI6
aI6
aI6
aI10
aI6
aI6
aI4
aI9
aI3
aI4
aI5
aI8
aI7
aI9
aI11
aI9
aI7
aI7
aI9
aI8
aI7
aI6
aI4
aI7
aI10
aI8
aI4
aI7
aI8
aI7
aI6
aI6
aI2
aI10
aI8
aI9
aI7
aI7
aI6
aI8
aI4
aI4
aI7
aI10
aI9
aI7
aI9
aI7
aI6
aI7
aI5
aI4
aI7
aI7
aI5
aI6
aI5
aI8
aI7
aI5
aI8
aI9
aI6
aI7
aI7
aI7
aI6
aI10
aI7
aI4
aI5
aI9
aI8
aI6
aI7
aI5
aI4
aI5
aI8
aI4
aI12
aI6
aI7
aI6
aI5
aI8
aI7
aI8
aI9
aI8
aI8
aI4
aI10
aI8
aI6
aI6
aI5
aI6
aI8
aI7
aI8
aI9
aI7
aI9
aI4
aI4
aI5
aI10
aI5
aI7
aI5
aI4
aI8
aI11
aI8
aI7
aI3
aI7
aI9
aI3
aI4
aI8
aI7
aI4
aI6
aI9
aI5
aI6
aI3
aI5
aI8
aI9
aI4
aI7
aI4
aI4
aI6
aI4
aI5
aI6
aI8
aI7
aI4
aI5
aI9
aI8
aI5
aI5
aI5
aI7
aI6
aI5
aI8
aI8
aI9
aI7
a.