(lp0
I30
aI25
aI12
aI13
aI39
aI21
aI17
aI9
aI29
aI16
aI23
aI15
aI29
aI9
aI19
aI17
aI12
aI23
aI29
aI26
aI29
aI14
aI30
aI24
aI10
aI23
aI30
aI10
aI22
aI17
aI12
aI16
aI12
aI20
aI10
aI39
aI10
aI45
aI18
aI31
aI17
aI11
aI12
aI18
aI13
aI24
aI14
aI10
aI10
aI24
aI16
aI10
aI22
aI13
aI9
aI22
aI21
aI13
aI20
aI22
aI18
aI33
aI13
aI14
aI13
aI12
aI10
aI16
aI11
aI15
aI16
aI20
aI12
aI9
aI15
aI16
aI16
aI18
aI16
aI47
aI27
aI24
aI8
aI11
aI14
aI14
aI8
aI11
aI26
aI15
aI21
aI22
aI11
aI22
aI25
aI12
aI31
aI14
aI13
aI26
aI21
aI18
aI12
aI16
aI12
aI35
aI12
aI21
aI30
aI33
aI36
aI10
aI10
aI24
aI20
aI11
aI10
aI17
aI18
aI16
aI38
aI10
aI24
aI11
aI9
aI21
aI13
aI20
aI37
aI22
aI8
aI13
aI14
aI15
aI11
aI27
aI15
aI17
aI9
aI10
aI10
aI14
aI12
aI15
aI10
aI18
aI15
aI24
aI9
aI18
aI20
aI14
aI27
aI13
aI10
aI12
aI14
aI41
aI11
aI13
aI10
aI18
aI11
aI12
aI15
aI12
aI11
aI9
aI59
aI17
aI11
aI14
aI11
aI11
aI18
aI11
aI17
aI12
aI20
aI16
aI13
aI9
aI12
aI30
aI23
aI13
aI19
aI11
aI13
aI15
aI47
aI9
aI10
aI23
aI24
aI19
aI9
aI10
aI26
aI28
aI19
aI39
aI14
aI14
aI15
aI12
aI12
aI9
aI20
aI15
aI18
aI13
aI11
aI16
aI20
aI14
aI25
aI43
aI26
aI18
aI14
aI23
aI26
aI14
aI28
aI17
aI9
aI14
aI34
aI14
aI16
aI29
aI26
aI21
aI11
aI12
aI9
aI15
aI10
aI12
aI26
aI10
aI14
aI10
aI9
aI10
aI17
aI11
aI10
aI12
aI24
aI24
aI26
aI12
aI24
aI11
aI47
aI17
aI9
aI11
aI15
aI13
aI16
aI11
aI14
aI35
aI21
aI14
aI17
aI13
aI14
aI14
aI28
aI8
aI9
aI17
aI23
aI16
aI22
aI11
aI16
aI19
aI11
aI10
aI12
aI12
aI26
aI18
aI17
aI12
aI12
aI20
aI30
aI15
aI15
aI15
aI28
aI10
aI14
aI20
aI18
aI12
aI14
aI26
aI12
aI10
aI9
aI18
aI12
aI10
aI57
aI10
aI13
aI27
aI10
aI11
aI10
aI37
aI13
aI57
aI12
aI17
aI11
aI11
aI16
aI13
aI9
aI18
aI17
aI11
aI12
aI10
aI13
aI10
aI17
aI16
aI23
aI34
aI11
aI8
aI14
aI11
aI19
aI10
aI39
aI34
aI38
aI14
aI15
aI17
aI23
aI20
aI13
aI21
aI13
aI9
aI11
aI12
aI9
aI12
aI33
aI14
aI11
aI21
aI12
aI10
aI12
aI28
aI37
aI16
aI19
aI12
aI26
aI15
aI27
aI22
aI28
aI21
aI14
aI22
aI11
aI11
aI12
aI14
aI10
aI12
aI14
aI31
aI9
aI20
aI19
aI8
aI18
aI17
aI21
aI9
aI12
aI17
aI37
aI17
aI11
aI16
aI12
aI12
aI9
aI10
aI13
aI10
aI29
aI9
aI18
aI15
aI15
aI44
aI11
aI10
aI10
aI29
aI9
aI11
aI34
aI10
aI14
aI11
aI22
aI12
aI18
aI10
aI12
aI11
aI14
aI8
aI12
aI25
aI32
aI16
aI32
aI16
aI12
aI25
aI10
aI19
aI16
aI10
aI19
aI12
aI17
aI9
aI21
aI22
aI11
aI13
aI12
aI26
aI12
aI12
aI11
aI24
aI12
aI9
aI14
aI18
aI45
aI13
aI12
aI19
aI14
aI8
aI12
aI9
aI33
aI17
aI28
aI20
aI12
aI9
aI30
aI10
aI9
aI19
aI11
aI12
aI16
aI41
aI11
aI18
aI9
aI21
aI12
aI12
aI18
aI10
aI16
aI12
aI9
aI17
aI17
aI40
aI12
aI16
aI11
aI11
aI21
aI31
aI17
aI16
aI17
aI17
aI21
aI19
aI27
aI24
aI8
aI10
aI8
aI13
aI19
aI14
aI11
aI14
aI11
aI16
aI19
aI12
aI15
aI14
aI12
aI11
aI14
aI12
aI22
aI18
aI10
aI12
aI15
aI10
aI24
aI16
aI12
aI17
aI9
aI15
aI28
aI10
aI9
aI31
aI15
aI18
aI15
aI15
aI17
aI15
aI13
aI60
aI13
aI31
aI28
aI13
aI14
aI10
aI16
aI17
aI20
aI16
aI11
aI21
aI11
aI12
aI11
aI16
aI10
aI10
aI15
aI9
aI15
aI21
aI19
aI24
aI10
aI12
aI12
aI9
aI16
aI15
aI30
aI15
aI14
aI11
aI27
aI15
aI19
aI12
aI9
aI15
aI12
aI14
aI9
aI12
aI9
aI21
aI9
aI25
aI12
aI28
aI21
aI9
aI9
aI11
aI22
aI17
aI27
aI13
aI15
aI11
aI18
aI19
aI11
aI11
aI10
aI15
aI13
aI19
aI14
aI21
aI24
aI26
aI16
aI15
aI14
aI11
aI15
aI14
aI9
aI23
aI12
aI10
aI17
aI12
aI31
aI12
aI17
aI20
aI23
aI10
aI26
aI12
aI32
aI10
aI21
aI13
aI10
aI9
aI16
aI18
aI10
aI23
aI17
aI52
aI9
aI16
aI10
aI17
aI9
aI12
aI12
aI11
aI19
aI12
aI12
aI13
aI9
aI9
aI10
aI60
aI13
aI17
aI22
aI17
aI18
aI11
aI11
aI11
aI14
aI21
aI14
aI11
aI17
aI18
aI9
aI13
aI9
aI15
aI27
aI30
aI11
aI20
aI15
aI16
aI15
aI18
aI12
aI21
aI14
aI16
aI16
aI11
aI18
aI20
aI12
aI16
aI15
aI10
aI14
aI12
aI10
aI9
aI14
aI16
aI17
aI14
aI11
aI11
aI11
aI10
aI16
aI10
aI16
aI13
aI13
aI11
aI11
aI12
aI11
aI10
aI9
aI12
aI8
aI9
aI11
aI13
aI18
aI16
a.